; Function Attrs: nounwind sspstrong uwtable
define dso_local void @v9fs_rlcreate(ptr noundef %0, ptr noundef %1, ptr noundef %2) local_unnamed_addr #1 {
  tail call void @v9fs_req_recv(ptr noundef %0, i8 noundef zeroext 15)
  %.not = icmp eq ptr %1, null
  br i1 %.not, label %13, label %4

4:                                                ; preds = %3
  %5 = load ptr, ptr %0, align 8
  %6 = getelementptr inbounds nuw i8, ptr %0, i64 40
  %7 = load i64, ptr %6, align 8
  %8 = getelementptr inbounds nuw i8, ptr %0, i64 56
  %9 = load i64, ptr %8, align 8
  %10 = add i64 %9, %7
  tail call void @qtest_memread(ptr noundef %5, i64 noundef %10, ptr noundef nonnull %1, i64 noundef 13) #14
  %11 = load i64, ptr %8, align 8
  %12 = add i64 %11, 13
  store i64 %12, ptr %8, align 8
  br label %17

13:                                               ; preds = %3
  %14 = getelementptr inbounds nuw i8, ptr %0, i64 56
  %15 = load i64, ptr %14, align 8
  %16 = add i64 %15, 13
  store i64 %16, ptr %14, align 8
  br label %17

17:                                               ; preds = %13, %4
  %18 = phi i64 [ %16, %13 ], [ %12, %4 ]
  %.not10 = icmp eq ptr %2, null
  br i1 %.not10, label %27, label %19

19:                                               ; preds = %17
  %20 = load ptr, ptr %0, align 8
  %21 = getelementptr inbounds nuw i8, ptr %0, i64 40
  %22 = load i64, ptr %21, align 8
  %23 = getelementptr inbounds nuw i8, ptr %0, i64 56
  %24 = add i64 %18, %22
  tail call void @qtest_memread(ptr noundef %20, i64 noundef %24, ptr noundef nonnull %2, i64 noundef 4) #14
  %25 = load i64, ptr %23, align 8
  %26 = add i64 %25, 4
  store i64 %26, ptr %23, align 8
  br label %27

27:                                               ; preds = %19, %17
  %28 = load ptr, ptr @alloc, align 8
  %29 = getelementptr inbounds nuw i8, ptr %0, i64 24
  %30 = load i64, ptr %29, align 8
  tail call void @guest_free(ptr noundef %28, i64 noundef %30) #14
  %31 = load ptr, ptr @alloc, align 8
  %32 = getelementptr inbounds nuw i8, ptr %0, i64 40
  %33 = load i64, ptr %32, align 8
  tail call void @guest_free(ptr noundef %31, i64 noundef %33) #14
  tail call void @g_free(ptr noundef nonnull %0) #14
  ret void
}